; ModuleID = '20/347.c'
source_filename = "20/347.c"
target datalayout = "e-m:e-p270:32:32-p271:32:32-p272:64:64-i64:64-f80:128-n8:16:32:64-S128"
target triple = "x86_64-pc-linux-gnu"

@.str = private unnamed_addr constant [5 x i8] c"%s%s\00", align 1
@.str.1 = private unnamed_addr constant [4 x i8] c"%s\0A\00", align 1

; Function Attrs: noinline nounwind uwtable
define dso_local void @main() #0 {
  %1 = alloca [11 x i8], align 1
  %2 = alloca [4 x i8], align 1
  %3 = alloca [20 x i8], align 16
  %4 = alloca [20 x i8], align 16
  %5 = alloca i32, align 4
  %6 = alloca i32, align 4
  %7 = alloca i32, align 4
  %8 = alloca i32, align 4
  %9 = alloca i32, align 4
  %10 = alloca i32, align 4
  br label %11

11:                                               ; preds = %91, %0
  %12 = getelementptr inbounds [11 x i8], [11 x i8]* %1, i64 0, i64 0
  %13 = getelementptr inbounds [4 x i8], [4 x i8]* %2, i64 0, i64 0
  %14 = call i32 (i8*, ...) @__isoc99_scanf(i8* getelementptr inbounds ([5 x i8], [5 x i8]* @.str, i64 0, i64 0), i8* %12, i8* %13)
  %15 = icmp ne i32 %14, -1
  br i1 %15, label %16, label %94

16:                                               ; preds = %11
  %17 = bitcast [20 x i8]* %4 to i8*
  call void @llvm.memset.p0i8.i64(i8* align 16 %17, i8 0, i64 20, i1 false)
  store i32 0, i32* %6, align 4
  %18 = getelementptr inbounds [11 x i8], [11 x i8]* %1, i64 0, i64 0
  %19 = call i64 @strlen(i8* %18) #5
  %20 = trunc i64 %19 to i32
  store i32 %20, i32* %8, align 4
  store i32 0, i32* %5, align 4
  br label %21

21:                                               ; preds = %41, %16
  %22 = load i32, i32* %5, align 4
  %23 = load i32, i32* %8, align 4
  %24 = icmp sle i32 %22, %23
  br i1 %24, label %25, label %44

25:                                               ; preds = %21
  %26 = load i32, i32* %5, align 4
  %27 = sext i32 %26 to i64
  %28 = getelementptr inbounds [11 x i8], [11 x i8]* %1, i64 0, i64 %27
  %29 = load i8, i8* %28, align 1
  %30 = sext i8 %29 to i32
  %31 = load i32, i32* %6, align 4
  %32 = icmp sgt i32 %30, %31
  br i1 %32, label %33, label %40

33:                                               ; preds = %25
  %34 = load i32, i32* %5, align 4
  %35 = sext i32 %34 to i64
  %36 = getelementptr inbounds [11 x i8], [11 x i8]* %1, i64 0, i64 %35
  %37 = load i8, i8* %36, align 1
  %38 = sext i8 %37 to i32
  store i32 %38, i32* %6, align 4
  %39 = load i32, i32* %5, align 4
  store i32 %39, i32* %7, align 4
  br label %40

40:                                               ; preds = %33, %25
  br label %41

41:                                               ; preds = %40
  %42 = load i32, i32* %5, align 4
  %43 = add nsw i32 %42, 1
  store i32 %43, i32* %5, align 4
  br label %21

44:                                               ; preds = %21
  store i32 0, i32* %5, align 4
  br label %45

45:                                               ; preds = %57, %44
  %46 = load i32, i32* %5, align 4
  %47 = load i32, i32* %7, align 4
  %48 = icmp sle i32 %46, %47
  br i1 %48, label %49, label %60

49:                                               ; preds = %45
  %50 = load i32, i32* %5, align 4
  %51 = sext i32 %50 to i64
  %52 = getelementptr inbounds [11 x i8], [11 x i8]* %1, i64 0, i64 %51
  %53 = load i8, i8* %52, align 1
  %54 = load i32, i32* %5, align 4
  %55 = sext i32 %54 to i64
  %56 = getelementptr inbounds [20 x i8], [20 x i8]* %4, i64 0, i64 %55
  store i8 %53, i8* %56, align 1
  br label %57

57:                                               ; preds = %49
  %58 = load i32, i32* %5, align 4
  %59 = add nsw i32 %58, 1
  store i32 %59, i32* %5, align 4
  br label %45

60:                                               ; preds = %45
  %61 = getelementptr inbounds [20 x i8], [20 x i8]* %4, i64 0, i64 0
  %62 = getelementptr inbounds [4 x i8], [4 x i8]* %2, i64 0, i64 0
  %63 = call i8* @strcat(i8* %61, i8* %62) #6
  %64 = getelementptr inbounds [11 x i8], [11 x i8]* %1, i64 0, i64 0
  %65 = call i64 @strlen(i8* %64) #5
  %66 = trunc i64 %65 to i32
  store i32 %66, i32* %8, align 4
  %67 = getelementptr inbounds [20 x i8], [20 x i8]* %4, i64 0, i64 0
  %68 = call i64 @strlen(i8* %67) #5
  %69 = trunc i64 %68 to i32
  store i32 %69, i32* %10, align 4
  store i32 0, i32* %9, align 4
  %70 = load i32, i32* %7, align 4
  %71 = add nsw i32 %70, 1
  store i32 %71, i32* %5, align 4
  br label %72

72:                                               ; preds = %88, %60
  %73 = load i32, i32* %5, align 4
  %74 = load i32, i32* %8, align 4
  %75 = icmp sle i32 %73, %74
  br i1 %75, label %76, label %91

76:                                               ; preds = %72
  %77 = load i32, i32* %5, align 4
  %78 = sext i32 %77 to i64
  %79 = getelementptr inbounds [11 x i8], [11 x i8]* %1, i64 0, i64 %78
  %80 = load i8, i8* %79, align 1
  %81 = load i32, i32* %10, align 4
  %82 = load i32, i32* %9, align 4
  %83 = add nsw i32 %81, %82
  %84 = sext i32 %83 to i64
  %85 = getelementptr inbounds [20 x i8], [20 x i8]* %4, i64 0, i64 %84
  store i8 %80, i8* %85, align 1
  %86 = load i32, i32* %9, align 4
  %87 = add nsw i32 %86, 1
  store i32 %87, i32* %9, align 4
  br label %88

88:                                               ; preds = %76
  %89 = load i32, i32* %5, align 4
  %90 = add nsw i32 %89, 1
  store i32 %90, i32* %5, align 4
  br label %72

91:                                               ; preds = %72
  %92 = getelementptr inbounds [20 x i8], [20 x i8]* %4, i64 0, i64 0
  %93 = call i32 (i8*, ...) @printf(i8* getelementptr inbounds ([4 x i8], [4 x i8]* @.str.1, i64 0, i64 0), i8* %92)
  br label %11

94:                                               ; preds = %11
  ret void
}

declare dso_local i32 @__isoc99_scanf(i8*, ...) #1

; Function Attrs: argmemonly nounwind willreturn
declare void @llvm.memset.p0i8.i64(i8* nocapture writeonly, i8, i64, i1 immarg) #2

; Function Attrs: nounwind readonly
declare dso_local i64 @strlen(i8*) #3

; Function Attrs: nounwind
declare dso_local i8* @strcat(i8*, i8*) #4

declare dso_local i32 @printf(i8*, ...) #1


!llvm.module.flags = !{!0}
!llvm.ident = !{!1}

!0 = !{i32 1, !"wchar_size", i32 4}
!1 = !{!"clang version 10.0.0-4ubuntu1 "}
